; ModuleID = 'source-C-CXX/10/441.c'
source_filename = "source-C-CXX/10/441.c"
target datalayout = "e-m:e-p270:32:32-p271:32:32-p272:64:64-i64:64-f80:128-n8:16:32:64-S128"
target triple = "x86_64-pc-linux-gnu"

@.str = private unnamed_addr constant [9 x i8] c"%d %d %d\00", align 1
@.str.1 = private unnamed_addr constant [3 x i8] c"%d\00", align 1

; Function Attrs: nofree nounwind sspstrong uwtable
define dso_local i32 @main(i32 %0, i8** nocapture readnone %1) local_unnamed_addr #0 {
  %3 = alloca i32, align 4
  %4 = alloca i32, align 4
  %5 = alloca i32, align 4
  %6 = bitcast i32* %3 to i8*
  call void @llvm.lifetime.start.p0i8(i64 4, i8* nonnull %6) #3
  %7 = bitcast i32* %4 to i8*
  call void @llvm.lifetime.start.p0i8(i64 4, i8* nonnull %7) #3
  %8 = bitcast i32* %5 to i8*
  call void @llvm.lifetime.start.p0i8(i64 4, i8* nonnull %8) #3
  %9 = call i32 (i8*, ...) @__isoc99_scanf(i8* getelementptr inbounds ([9 x i8], [9 x i8]* @.str, i64 0, i64 0), i32* nonnull %3, i32* nonnull %4, i32* nonnull %5)
  %10 = load i32, i32* %4, align 4, !tbaa !5
  switch i32 %10, label %43 [
    i32 1, label %11
    i32 2, label %13
    i32 3, label %16
    i32 4, label %19
    i32 5, label %22
    i32 6, label %25
    i32 7, label %28
    i32 8, label %31
    i32 9, label %34
    i32 10, label %37
    i32 11, label %40
  ]

11:                                               ; preds = %2
  %12 = load i32, i32* %5, align 4, !tbaa !5
  br label %46

13:                                               ; preds = %2
  %14 = load i32, i32* %5, align 4, !tbaa !5
  %15 = add nsw i32 %14, 31
  br label %46

16:                                               ; preds = %2
  %17 = load i32, i32* %5, align 4, !tbaa !5
  %18 = add nsw i32 %17, 59
  br label %46

19:                                               ; preds = %2
  %20 = load i32, i32* %5, align 4, !tbaa !5
  %21 = add nsw i32 %20, 90
  br label %46

22:                                               ; preds = %2
  %23 = load i32, i32* %5, align 4, !tbaa !5
  %24 = add nsw i32 %23, 120
  br label %46

25:                                               ; preds = %2
  %26 = load i32, i32* %5, align 4, !tbaa !5
  %27 = add nsw i32 %26, 151
  br label %46

28:                                               ; preds = %2
  %29 = load i32, i32* %5, align 4, !tbaa !5
  %30 = add nsw i32 %29, 181
  br label %46

31:                                               ; preds = %2
  %32 = load i32, i32* %5, align 4, !tbaa !5
  %33 = add nsw i32 %32, 212
  br label %46

34:                                               ; preds = %2
  %35 = load i32, i32* %5, align 4, !tbaa !5
  %36 = add nsw i32 %35, 243
  br label %46

37:                                               ; preds = %2
  %38 = load i32, i32* %5, align 4, !tbaa !5
  %39 = add nsw i32 %38, 273
  br label %46

40:                                               ; preds = %2
  %41 = load i32, i32* %5, align 4, !tbaa !5
  %42 = add nsw i32 %41, 304
  br label %46

43:                                               ; preds = %2
  %44 = load i32, i32* %5, align 4, !tbaa !5
  %45 = add nsw i32 %44, 334
  br label %46

46:                                               ; preds = %13, %19, %25, %31, %37, %43, %40, %34, %28, %22, %16, %11
  %47 = phi i32 [ %12, %11 ], [ %15, %13 ], [ %18, %16 ], [ %21, %19 ], [ %24, %22 ], [ %27, %25 ], [ %30, %28 ], [ %33, %31 ], [ %36, %34 ], [ %39, %37 ], [ %42, %40 ], [ %45, %43 ]
  %48 = load i32, i32* %3, align 4, !tbaa !5
  %49 = and i32 %48, 3
  %50 = icmp ne i32 %49, 0
  %51 = srem i32 %48, 100
  %52 = icmp eq i32 %51, 0
  %53 = or i1 %50, %52
  br i1 %53, label %54, label %59

54:                                               ; preds = %46
  %55 = srem i32 %48, 400
  %56 = icmp eq i32 %55, 0
  %57 = icmp sgt i32 %10, 2
  %58 = select i1 %56, i1 %57, i1 false
  br i1 %58, label %61, label %63

59:                                               ; preds = %46
  %60 = icmp sgt i32 %10, 2
  br i1 %60, label %61, label %63

61:                                               ; preds = %54, %59
  %62 = add nsw i32 %47, 1
  br label %63

63:                                               ; preds = %61, %59, %54
  %64 = phi i32 [ %62, %61 ], [ %47, %59 ], [ %47, %54 ]
  %65 = call i32 (i8*, ...) @printf(i8* nonnull dereferenceable(1) getelementptr inbounds ([3 x i8], [3 x i8]* @.str.1, i64 0, i64 0), i32 %64)
  call void @llvm.lifetime.end.p0i8(i64 4, i8* nonnull %8) #3
  call void @llvm.lifetime.end.p0i8(i64 4, i8* nonnull %7) #3
  call void @llvm.lifetime.end.p0i8(i64 4, i8* nonnull %6) #3
  ret i32 0
}

; Function Attrs: argmemonly mustprogress nofree nosync nounwind willreturn
declare void @llvm.lifetime.start.p0i8(i64 immarg, i8* nocapture) #1

; Function Attrs: nofree nounwind
declare noundef i32 @__isoc99_scanf(i8* nocapture noundef readonly, ...) local_unnamed_addr #2

; Function Attrs: nofree nounwind
declare noundef i32 @printf(i8* nocapture noundef readonly, ...) local_unnamed_addr #2

; Function Attrs: argmemonly mustprogress nofree nosync nounwind willreturn
declare void @llvm.lifetime.end.p0i8(i64 immarg, i8* nocapture) #1


!llvm.module.flags = !{!0, !1, !2, !3}
!llvm.ident = !{!4}

!0 = !{i32 1, !"wchar_size", i32 4}
!1 = !{i32 7, !"PIC Level", i32 2}
!2 = !{i32 7, !"PIE Level", i32 2}
!3 = !{i32 7, !"uwtable", i32 1}
!4 = !{!"clang version 13.0.0"}
!5 = !{!6, !6, i64 0}
!6 = !{!"int", !7, i64 0}
!7 = !{!"omnipotent char", !8, i64 0}
!8 = !{!"Simple C/C++ TBAA"}
